; Function Attrs: nofree norecurse nosync nounwind memory(readwrite, inaccessiblemem: none) uwtable
define range(i32 0, 3) i32 @ff_vvc_intra_luma_ref_idx(ptr noundef readonly captures(none) %0) local_unnamed_addr #3 {
  %2 = getelementptr inbounds nuw i8, ptr %0, i64 4580560
  %3 = load ptr, ptr %2, align 16, !tbaa !67
  %4 = getelementptr inbounds nuw i8, ptr %3, i64 2672
  %5 = getelementptr inbounds nuw i8, ptr %3, i64 400
  %6 = getelementptr inbounds nuw i8, ptr %3, i64 2676
  %7 = getelementptr inbounds nuw i8, ptr %3, i64 2688
  %8 = getelementptr inbounds nuw i8, ptr %3, i64 2696
  %.promoted = load i32, ptr %6, align 4, !tbaa !100
  %.promoted10 = load i32, ptr %4, align 8, !tbaa !70
  br label %9

9:                                                ; preds = %1, %89
  %10 = phi i1 [ true, %1 ], [ false, %89 ]
  %indvars.iv = phi i64 [ 0, %1 ], [ 1, %89 ]
  %11 = phi i32 [ %.promoted10, %1 ], [ %67, %89 ]
  %12 = phi i32 [ %.promoted, %1 ], [ %39, %89 ]
  %13 = getelementptr inbounds nuw %struct.VVCCabacState, ptr %5, i64 %indvars.iv
  %14 = getelementptr inbounds nuw i8, ptr %13, i64 372
  %15 = ashr i32 %12, 5
  %16 = getelementptr inbounds nuw i8, ptr %13, i64 374
  %17 = load i16, ptr %16, align 2, !tbaa !58
  %18 = zext i16 %17 to i32
  %19 = load i16, ptr %14, align 2, !tbaa !58
  %20 = zext i16 %19 to i32
  %21 = shl nuw nsw i32 %20, 4
  %22 = add nuw nsw i32 %21, %18
  %.not.i = icmp samesign ult i32 %22, 16384
  %23 = sub nsw i32 32767, %22
  %24 = select i1 %.not.i, i32 %22, i32 %23
  %25 = ashr i32 %24, 9
  %26 = mul nsw i32 %25, %15
  %27 = ashr i32 %26, 1
  %28 = add nsw i32 %27, 4
  %29 = sub nsw i32 %12, %28
  %30 = shl i32 %29, 17
  %31 = icmp slt i32 %30, %11
  %32 = select i1 %31, i32 %30, i32 0
  %33 = sub nsw i32 %11, %32
  %34 = select i1 %31, i32 %28, i32 %29
  %35 = sext i32 %34 to i64
  %36 = getelementptr inbounds i8, ptr @ff_h264_cabac_tables, i64 %35
  %37 = load i8, ptr %36, align 1, !tbaa !97
  %38 = zext i8 %37 to i32
  %39 = shl i32 %34, %38
  store i32 %39, ptr %6, align 4, !tbaa !100
  %40 = shl i32 %33, %38
  store i32 %40, ptr %4, align 8, !tbaa !70
  %41 = and i32 %40, 65535
  %.not42.i = icmp eq i32 %41, 0
  br i1 %.not42.i, label %42, label %vvc_get_cabac.exit

42:                                               ; preds = %9
  %43 = add nsw i32 %40, -1
  %44 = xor i32 %43, %40
  %45 = lshr i32 %44, 15
  %46 = zext nneg i32 %45 to i64
  %47 = getelementptr inbounds nuw i8, ptr @ff_h264_cabac_tables, i64 %46
  %48 = load i8, ptr %47, align 1, !tbaa !97
  %49 = zext i8 %48 to i32
  %50 = sub nsw i32 7, %49
  %51 = load ptr, ptr %7, align 8, !tbaa !68
  %52 = load i8, ptr %51, align 1, !tbaa !97
  %53 = zext i8 %52 to i32
  %54 = shl nuw nsw i32 %53, 9
  %55 = getelementptr inbounds nuw i8, ptr %51, i64 1
  %56 = load i8, ptr %55, align 1, !tbaa !97
  %57 = zext i8 %56 to i32
  %58 = shl nuw nsw i32 %57, 1
  %59 = or disjoint i32 %58, %54
  %60 = add nsw i32 %59, -65535
  %61 = shl nsw i32 %60, %50
  %62 = add i32 %61, %40
  store i32 %62, ptr %4, align 8, !tbaa !70
  %63 = load ptr, ptr %8, align 8, !tbaa !71
  %64 = icmp ult ptr %51, %63
  br i1 %64, label %65, label %vvc_get_cabac.exit

65:                                               ; preds = %42
  %66 = getelementptr inbounds nuw i8, ptr %51, i64 2
  store ptr %66, ptr %7, align 8, !tbaa !68
  br label %vvc_get_cabac.exit

vvc_get_cabac.exit:                               ; preds = %9, %42, %65
  %67 = phi i32 [ %40, %9 ], [ %62, %42 ], [ %62, %65 ]
  %68 = lshr i32 %22, 14
  %69 = zext i1 %31 to i32
  %70 = xor i32 %68, %69
  %71 = getelementptr inbounds nuw i8, ptr %13, i64 376
  %72 = load i8, ptr %71, align 2, !tbaa !97
  %73 = zext i8 %72 to i32
  %74 = lshr i32 %20, %73
  %75 = sub nsw i32 %20, %74
  %76 = mul nuw nsw i32 %70, 1023
  %77 = lshr i32 %76, %73
  %78 = add nsw i32 %75, %77
  %79 = trunc i32 %78 to i16
  store i16 %79, ptr %14, align 2, !tbaa !58
  %80 = getelementptr inbounds nuw i8, ptr %13, i64 377
  %81 = load i8, ptr %80, align 1, !tbaa !97
  %82 = zext i8 %81 to i32
  %83 = lshr i32 %18, %82
  %84 = sub nsw i32 %18, %83
  %85 = mul nuw nsw i32 %70, 16383
  %86 = lshr i32 %85, %82
  %87 = add nsw i32 %84, %86
  %88 = trunc i32 %87 to i16
  store i16 %88, ptr %16, align 2, !tbaa !58
  %.not = icmp eq i32 %68, %69
  br i1 %.not, label %.split.loop.exit12, label %89

89:                                               ; preds = %vvc_get_cabac.exit
  br i1 %10, label %9, label %.split.loop.exit, !llvm.loop !134

.split.loop.exit12:                               ; preds = %vvc_get_cabac.exit
  %90 = trunc nuw nsw i64 %indvars.iv to i32
  br label %.split.loop.exit

.split.loop.exit:                                 ; preds = %89, %.split.loop.exit12
  %.0.lcssa = phi i32 [ %90, %.split.loop.exit12 ], [ 2, %89 ]
  ret i32 %.0.lcssa
}